; Function Attrs: nounwind uwtable
define noalias noundef ptr @Acec_BoothFindPPG(ptr noundef %0) local_unnamed_addr #0 {
  %2 = getelementptr i8, ptr %0, i64 24
  %.val11 = load i32, ptr %2, align 8, !tbaa !41
  %3 = ashr i32 %.val11, 5
  %4 = and i32 %.val11, 31
  %5 = icmp ne i32 %4, 0
  %6 = zext i1 %5 to i32
  %7 = add nsw i32 %3, %6
  %8 = tail call noalias dereferenceable_or_null(16) ptr @malloc(i64 noundef 16) #13
  %9 = shl nsw i32 %7, 5
  store i32 %9, ptr %8, align 8, !tbaa !77
  %.not.i.i = icmp eq i32 %7, 0
  br i1 %.not.i.i, label %Vec_BitStart.exit, label %10

10:                                               ; preds = %1
  %11 = sext i32 %7 to i64
  %12 = shl nsw i64 %11, 2
  %13 = tail call noalias ptr @malloc(i64 noundef %12) #13
  br label %Vec_BitStart.exit

Vec_BitStart.exit:                                ; preds = %1, %10
  %.pre-phi8.i = phi i64 [ %12, %10 ], [ 0, %1 ]
  %14 = phi ptr [ %13, %10 ], [ null, %1 ]
  %15 = getelementptr inbounds nuw i8, ptr %8, i64 4
  %16 = getelementptr inbounds nuw i8, ptr %8, i64 8
  store ptr %14, ptr %16, align 8, !tbaa !79
  store i32 %9, ptr %15, align 4, !tbaa !80
  tail call void @llvm.memset.p0.i64(ptr align 4 %14, i8 0, i64 %.pre-phi8.i, i1 false)
  %17 = tail call ptr @Acec_MultFindPPs(ptr noundef nonnull %0)
  %18 = getelementptr i8, ptr %17, i64 4
  %.val13 = load i32, ptr %18, align 4, !tbaa !27
  %19 = icmp sgt i32 %.val13, 0
  %20 = getelementptr i8, ptr %17, i64 8
  %.val10 = load ptr, ptr %20, align 8, !tbaa !30
  br i1 %19, label %.lr.ph, label %.critedge

.lr.ph:                                           ; preds = %Vec_BitStart.exit, %.lr.ph
  %indvars.iv = phi i64 [ %indvars.iv.next, %.lr.ph ], [ 0, %Vec_BitStart.exit ]
  %21 = getelementptr inbounds nuw i32, ptr %.val10, i64 %indvars.iv
  %22 = load i32, ptr %21, align 4, !tbaa !16
  %23 = and i32 %22, 31
  %24 = shl nuw i32 1, %23
  %25 = ashr i32 %22, 5
  %26 = sext i32 %25 to i64
  %27 = getelementptr inbounds i32, ptr %14, i64 %26
  %28 = load i32, ptr %27, align 4, !tbaa !16
  %29 = or i32 %24, %28
  store i32 %29, ptr %27, align 4, !tbaa !16
  %indvars.iv.next = add nuw nsw i64 %indvars.iv, 1
  %.val = load i32, ptr %18, align 4, !tbaa !27
  %30 = sext i32 %.val to i64
  %31 = icmp slt i64 %indvars.iv.next, %30
  br i1 %31, label %.lr.ph, label %.critedge.thread, !llvm.loop !84

.critedge:                                        ; preds = %Vec_BitStart.exit
  %.not.i = icmp eq ptr %.val10, null
  br i1 %.not.i, label %Vec_IntFree.exit, label %.critedge.thread

.critedge.thread:                                 ; preds = %.lr.ph, %.critedge
  tail call void @free(ptr noundef nonnull %.val10) #11
  br label %Vec_IntFree.exit

Vec_IntFree.exit:                                 ; preds = %.critedge, %.critedge.thread
  tail call void @free(ptr noundef nonnull %17) #11
  ret ptr %8
}